target datalayout = "e-m:e-p270:32:32-p271:32:32-p272:64:64-i64:64-i128:128-f80:128-n8:16:32:64-S128"
target triple = "x86_64-pc-linux-gnu"

%"class.duckdb_re2::Regexp::ParseState" = type { i32, %"class.duckdb_re2::StringPiece", ptr, ptr, i32, i32 }
%"class.duckdb_re2::StringPiece" = type { ptr, i64 }

; Function Attrs: mustprogress uwtable
define hidden noundef zeroext i1 @_ZN10duckdb_re26Regexp10ParseState12PushSimpleOpENS_8RegexpOpE(ptr noundef nonnull align 8 dereferenceable(48) %0, i32 noundef %1) #1 align 2 personality ptr @__gxx_personality_v0 {
  %3 = alloca ptr, align 8
  %4 = alloca i32, align 4
  %5 = alloca ptr, align 8
  %6 = alloca ptr, align 8
  %7 = alloca i32, align 4
  store ptr %0, ptr %3, align 8, !tbaa !7
  store i32 %1, ptr %4, align 4, !tbaa !61
  %8 = load ptr, ptr %3, align 8
  call void @llvm.lifetime.start.p0(i64 8, ptr %5) #19
  %9 = call noalias noundef nonnull ptr @_Znwm(i64 noundef 40) #23
  %10 = load i32, ptr %4, align 4, !tbaa !61
  %11 = getelementptr inbounds nuw %"class.duckdb_re2::Regexp::ParseState", ptr %8, i32 0, i32 0
  %12 = load i32, ptr %11, align 8, !tbaa !16
  invoke void @_ZN10duckdb_re26RegexpC1ENS_8RegexpOpENS0_10ParseFlagsE(ptr noundef nonnull align 8 dereferenceable(40) %9, i32 noundef %10, i32 noundef %12)
          to label %13 unwind label %16

13:                                               ; preds = %2
  store ptr %9, ptr %5, align 8, !tbaa !29
  %14 = load ptr, ptr %5, align 8, !tbaa !29
  %15 = call noundef zeroext i1 @_ZN10duckdb_re26Regexp10ParseState10PushRegexpEPS0_(ptr noundef nonnull align 8 dereferenceable(48) %8, ptr noundef %14)
  call void @llvm.lifetime.end.p0(i64 8, ptr %5) #19
  ret i1 %15

16:                                               ; preds = %2
  %17 = landingpad { ptr, i32 }
          cleanup
  %18 = extractvalue { ptr, i32 } %17, 0
  store ptr %18, ptr %6, align 8
  %19 = extractvalue { ptr, i32 } %17, 1
  store i32 %19, ptr %7, align 4
  call void @_ZdlPv(ptr noundef %9) #21
  call void @llvm.lifetime.end.p0(i64 8, ptr %5) #19
  br label %20

20:                                               ; preds = %16
  %21 = load ptr, ptr %6, align 8
  %22 = load i32, ptr %7, align 4
  %23 = insertvalue { ptr, i32 } poison, ptr %21, 0
  %24 = insertvalue { ptr, i32 } %23, i32 %22, 1
  resume { ptr, i32 } %24
}